target datalayout = "e-m:e-p270:32:32-p271:32:32-p272:64:64-i64:64-i128:128-f80:128-n8:16:32:64-S128"
target triple = "x86_64-pc-linux-gnu"

%struct._zend_executor_globals = type { %struct._zval_struct, %struct._zval_struct, [32 x ptr], ptr, ptr, %struct._zend_array, %struct._zend_array, ptr, i32, i32, ptr, ptr, ptr, ptr, ptr, ptr, i64, ptr, ptr, i32, i32, i64, i32, i32, i32, i8, i8, %struct.zend_atomic_bool_s, %struct.zend_atomic_bool_s, ptr, i64, ptr, ptr, %struct._zend_array, %struct._zend_array, i32, i8, %struct._zval_struct, %struct._zval_struct, %struct._zend_stack, %struct._zend_stack, %struct._zend_stack, ptr, i32, i32, i64, ptr, ptr, ptr, %struct._zend_objects_store, ptr, ptr, ptr, [3 x %struct._zend_op], ptr, i8, i8, i64, i32, i32, ptr, [16 x %struct._HashTableIterator], ptr, %union._zend_function, %struct._zend_op, %struct._zend_array, i64, %struct.zend_get_gc_buffer, ptr, ptr, ptr, i64, i8, i32, ptr, ptr, i64, %struct._zend_call_stack, i64, i64, [6 x ptr] }
%struct.zend_atomic_bool_s = type { i8 }
%struct._zval_struct = type { %union._zend_value, %union.anon.3, %union.anon.6 }
%union._zend_value = type { i64 }
%union.anon.3 = type { i32 }
%union.anon.6 = type { i32 }
%struct._zend_stack = type { i32, i32, i32, ptr }
%struct._zend_objects_store = type { ptr, i32, i32, i32 }
%struct._HashTableIterator = type { ptr, i32, i32 }
%union._zend_function = type { %struct._zend_op_array }
%struct._zend_op_array = type { i8, [3 x i8], i32, ptr, ptr, ptr, i32, i32, ptr, ptr, ptr, ptr, i32, i32, i32, i32, ptr, ptr, ptr, ptr, ptr, i32, i32, ptr, ptr, ptr, i32, i32, i32, i32, ptr, ptr, [6 x ptr] }
%struct._zend_op = type { ptr, %union._znode_op, %union._znode_op, %union._znode_op, i32, i32, i8, i8, i8, i8 }
%union._znode_op = type { i32 }
%struct._zend_array = type { %struct._zend_refcounted_h, %union.anon.0, i32, %union.anon.1, i32, i32, i32, i32, i64, ptr }
%struct._zend_refcounted_h = type { i32, %union.anon }
%union.anon = type { i32 }
%union.anon.0 = type { i32 }
%union.anon.1 = type { ptr }
%struct.zend_get_gc_buffer = type { ptr, ptr, ptr }
%struct._zend_call_stack = type { ptr, i64 }
%struct._spl_SplObjectStorage = type { %struct._zend_array, i64, i32, i64, ptr, %struct._zend_object }
%struct._zend_object = type { %struct._zend_refcounted_h, i32, ptr, ptr, ptr, [1 x %struct._zval_struct] }
%struct._zend_execute_data = type { ptr, ptr, ptr, ptr, %struct._zval_struct, ptr, ptr, ptr, ptr }

@executor_globals = external global %struct._zend_executor_globals, align 8

; Function Attrs: nounwind uwtable
define internal ptr @spl_object_storage_from_obj(ptr noundef %0) #0 {
  %2 = alloca ptr, align 8
  store ptr %0, ptr %2, align 8
  %3 = load ptr, ptr %2, align 8
  %4 = getelementptr inbounds i8, ptr %3, i64 -88
  ret ptr %4
}

; Function Attrs: nounwind uwtable
define hidden void @zim_SplObjectStorage_valid(ptr noundef %0, ptr noundef %1) #0 {
  %3 = alloca ptr, align 8
  %4 = alloca ptr, align 8
  %5 = alloca ptr, align 8
  %6 = alloca ptr, align 8
  %7 = alloca ptr, align 8
  store ptr %0, ptr %5, align 8
  store ptr %1, ptr %6, align 8
  %8 = load ptr, ptr %5, align 8
  %9 = getelementptr inbounds %struct._zend_execute_data, ptr %8, i32 0, i32 4
  %10 = getelementptr inbounds %struct._zval_struct, ptr %9, i32 0, i32 0
  %11 = load ptr, ptr %10, align 8
  %12 = call ptr @spl_object_storage_from_obj(ptr noundef %11)
  store ptr %12, ptr %7, align 8
  %13 = load ptr, ptr %5, align 8
  %14 = getelementptr inbounds %struct._zend_execute_data, ptr %13, i32 0, i32 4
  %15 = getelementptr inbounds %struct._zval_struct, ptr %14, i32 0, i32 2
  %16 = load i32, ptr %15, align 4
  %17 = icmp eq i32 %16, 0
  %18 = xor i1 %17, true
  %19 = xor i1 %18, true
  %20 = zext i1 %19 to i32
  %21 = sext i32 %20 to i64
  %22 = icmp ne i64 %21, 0
  br i1 %22, label %23, label %24

23:                                               ; preds = %2
  br label %25

24:                                               ; preds = %2
  call void @zend_wrong_parameters_none_error()
  br label %25

25:                                               ; preds = %24, %23
  %26 = phi i32 [ 0, %23 ], [ -1, %24 ]
  %27 = icmp eq i32 %26, -1
  br i1 %27, label %28, label %33

28:                                               ; preds = %25
  br label %29

29:                                               ; preds = %28
  %30 = load ptr, ptr getelementptr inbounds (%struct._zend_executor_globals, ptr @executor_globals, i32 0, i32 50), align 8
  %31 = icmp ne ptr %30, null
  call void @llvm.assume(i1 %31)
  br label %50

32:                                               ; No predecessors!
  br label %33

33:                                               ; preds = %32, %25
  br label %34

34:                                               ; preds = %33
  br label %35

35:                                               ; preds = %34
  %36 = load ptr, ptr %7, align 8
  %37 = getelementptr inbounds %struct._spl_SplObjectStorage, ptr %36, i32 0, i32 0
  %38 = load ptr, ptr %7, align 8
  %39 = getelementptr inbounds %struct._spl_SplObjectStorage, ptr %38, i32 0, i32 2
  store ptr %37, ptr %3, align 8
  store ptr %39, ptr %4, align 8
  %40 = load ptr, ptr %3, align 8
  %41 = load ptr, ptr %4, align 8
  %42 = call i32 @zend_hash_get_current_key_type_ex(ptr noundef %40, ptr noundef %41) #10
  %43 = icmp eq i32 %42, 3
  %44 = select i1 %43, i32 -1, i32 0
  %45 = icmp eq i32 %44, 0
  %46 = select i1 %45, i32 3, i32 2
  %47 = load ptr, ptr %6, align 8
  %48 = getelementptr inbounds %struct._zval_struct, ptr %47, i32 0, i32 1
  store i32 %46, ptr %48, align 8
  br label %49

49:                                               ; preds = %35
  br label %50

50:                                               ; preds = %49, %29
  ret void
}